
hello:     file format elf64-littleaarch64


Disassembly of section .init:

0000000000400760 <_init>:
  400760:	d503233f 	paciasp
  400764:	a9bf7bfd 	stp	x29, x30, [sp, #-16]!
  400768:	910003fd 	mov	x29, sp
  40076c:	94000047 	bl	400888 <call_weak_fn>
  400770:	a8c17bfd 	ldp	x29, x30, [sp], #16
  400774:	d50323bf 	autiasp
  400778:	d65f03c0 	ret

Disassembly of section .plt:

0000000000400780 <.plt>:
  400780:	a9bf7bf0 	stp	x16, x30, [sp, #-16]!
  400784:	f00000f0 	adrp	x16, 41f000 <__FRAME_END__+0x1e380>
  400788:	f947fe11 	ldr	x17, [x16, #4088]
  40078c:	913fe210 	add	x16, x16, #0xff8
  400790:	d61f0220 	br	x17
  400794:	d503201f 	nop
  400798:	d503201f 	nop
  40079c:	d503201f 	nop

00000000004007a0 <_ZSt4endlIcSt11char_traitsIcEERSt13basic_ostreamIT_T0_ES6_@plt>:
  4007a0:	90000110 	adrp	x16, 420000 <_ZSt4endlIcSt11char_traitsIcEERSt13basic_ostreamIT_T0_ES6_@GLIBCXX_3.4>
  4007a4:	f9400211 	ldr	x17, [x16]
  4007a8:	91000210 	add	x16, x16, #0x0
  4007ac:	d61f0220 	br	x17

00000000004007b0 <__libc_start_main@plt>:
  4007b0:	90000110 	adrp	x16, 420000 <_ZSt4endlIcSt11char_traitsIcEERSt13basic_ostreamIT_T0_ES6_@GLIBCXX_3.4>
  4007b4:	f9400611 	ldr	x17, [x16, #8]
  4007b8:	91002210 	add	x16, x16, #0x8
  4007bc:	d61f0220 	br	x17

00000000004007c0 <_ZStlsISt11char_traitsIcEERSt13basic_ostreamIcT_ES5_PKc@plt>:
  4007c0:	90000110 	adrp	x16, 420000 <_ZSt4endlIcSt11char_traitsIcEERSt13basic_ostreamIT_T0_ES6_@GLIBCXX_3.4>
  4007c4:	f9400a11 	ldr	x17, [x16, #16]
  4007c8:	91004210 	add	x16, x16, #0x10
  4007cc:	d61f0220 	br	x17

00000000004007d0 <_ZNSolsEPFRSoS_E@plt>:
  4007d0:	90000110 	adrp	x16, 420000 <_ZSt4endlIcSt11char_traitsIcEERSt13basic_ostreamIT_T0_ES6_@GLIBCXX_3.4>
  4007d4:	f9400e11 	ldr	x17, [x16, #24]
  4007d8:	91006210 	add	x16, x16, #0x18
  4007dc:	d61f0220 	br	x17

00000000004007e0 <__cxa_atexit@plt>:
  4007e0:	90000110 	adrp	x16, 420000 <_ZSt4endlIcSt11char_traitsIcEERSt13basic_ostreamIT_T0_ES6_@GLIBCXX_3.4>
  4007e4:	f9401211 	ldr	x17, [x16, #32]
  4007e8:	91008210 	add	x16, x16, #0x20
  4007ec:	d61f0220 	br	x17

00000000004007f0 <_ZNSt8ios_base4InitC1Ev@plt>:
  4007f0:	90000110 	adrp	x16, 420000 <_ZSt4endlIcSt11char_traitsIcEERSt13basic_ostreamIT_T0_ES6_@GLIBCXX_3.4>
  4007f4:	f9401611 	ldr	x17, [x16, #40]
  4007f8:	9100a210 	add	x16, x16, #0x28
  4007fc:	d61f0220 	br	x17

0000000000400800 <abort@plt>:
  400800:	90000110 	adrp	x16, 420000 <_ZSt4endlIcSt11char_traitsIcEERSt13basic_ostreamIT_T0_ES6_@GLIBCXX_3.4>
  400804:	f9401a11 	ldr	x17, [x16, #48]
  400808:	9100c210 	add	x16, x16, #0x30
  40080c:	d61f0220 	br	x17

0000000000400810 <_ZNSolsEi@plt>:
  400810:	90000110 	adrp	x16, 420000 <_ZSt4endlIcSt11char_traitsIcEERSt13basic_ostreamIT_T0_ES6_@GLIBCXX_3.4>
  400814:	f9401e11 	ldr	x17, [x16, #56]
  400818:	9100e210 	add	x16, x16, #0x38
  40081c:	d61f0220 	br	x17

0000000000400820 <__gmon_start__@plt>:
  400820:	90000110 	adrp	x16, 420000 <_ZSt4endlIcSt11char_traitsIcEERSt13basic_ostreamIT_T0_ES6_@GLIBCXX_3.4>
  400824:	f9402211 	ldr	x17, [x16, #64]
  400828:	91010210 	add	x16, x16, #0x40
  40082c:	d61f0220 	br	x17

0000000000400830 <_ZNSt8ios_base4InitD1Ev@plt>:
  400830:	90000110 	adrp	x16, 420000 <_ZSt4endlIcSt11char_traitsIcEERSt13basic_ostreamIT_T0_ES6_@GLIBCXX_3.4>
  400834:	f9402611 	ldr	x17, [x16, #72]
  400838:	91012210 	add	x16, x16, #0x48
  40083c:	d61f0220 	br	x17

Disassembly of section .text:

0000000000400840 <_start>:
  400840:	d503245f 	bti	c
  400844:	d280001d 	mov	x29, #0x0                   	// #0
  400848:	d280001e 	mov	x30, #0x0                   	// #0
  40084c:	aa0003e5 	mov	x5, x0
  400850:	f94003e1 	ldr	x1, [sp]
  400854:	910023e2 	add	x2, sp, #0x8
  400858:	910003e6 	mov	x6, sp
  40085c:	90000000 	adrp	x0, 400000 <__abi_tag-0x278>
  400860:	9121d000 	add	x0, x0, #0x874
  400864:	d2800003 	mov	x3, #0x0                   	// #0
  400868:	d2800004 	mov	x4, #0x0                   	// #0
  40086c:	97ffffd1 	bl	4007b0 <__libc_start_main@plt>
  400870:	97ffffe4 	bl	400800 <abort@plt>

0000000000400874 <__wrap_main>:
  400874:	d503245f 	bti	c
  400878:	14000059 	b	4009dc <main>

000000000040087c <.annobin_abi_note.c>:
  40087c:	d503201f 	nop

0000000000400880 <_dl_relocate_static_pie>:
  400880:	d503245f 	bti	c
  400884:	d65f03c0 	ret

0000000000400888 <call_weak_fn>:
  400888:	f00000e0 	adrp	x0, 41f000 <__FRAME_END__+0x1e380>
  40088c:	f947ec00 	ldr	x0, [x0, #4056]
  400890:	b4000040 	cbz	x0, 400898 <call_weak_fn+0x10>
  400894:	17ffffe3 	b	400820 <__gmon_start__@plt>
  400898:	d65f03c0 	ret
  40089c:	d503201f 	nop

00000000004008a0 <deregister_tm_clones>:
  4008a0:	90000100 	adrp	x0, 420000 <_ZSt4endlIcSt11char_traitsIcEERSt13basic_ostreamIT_T0_ES6_@GLIBCXX_3.4>
  4008a4:	91016000 	add	x0, x0, #0x58
  4008a8:	90000101 	adrp	x1, 420000 <_ZSt4endlIcSt11char_traitsIcEERSt13basic_ostreamIT_T0_ES6_@GLIBCXX_3.4>
  4008ac:	91016021 	add	x1, x1, #0x58
  4008b0:	eb00003f 	cmp	x1, x0
  4008b4:	540000c0 	b.eq	4008cc <deregister_tm_clones+0x2c>  // b.none
  4008b8:	f00000e1 	adrp	x1, 41f000 <__FRAME_END__+0x1e380>
  4008bc:	f947e821 	ldr	x1, [x1, #4048]
  4008c0:	b4000061 	cbz	x1, 4008cc <deregister_tm_clones+0x2c>
  4008c4:	aa0103f0 	mov	x16, x1
  4008c8:	d61f0200 	br	x16
  4008cc:	d65f03c0 	ret

00000000004008d0 <register_tm_clones>:
  4008d0:	90000100 	adrp	x0, 420000 <_ZSt4endlIcSt11char_traitsIcEERSt13basic_ostreamIT_T0_ES6_@GLIBCXX_3.4>
  4008d4:	91016000 	add	x0, x0, #0x58
  4008d8:	90000101 	adrp	x1, 420000 <_ZSt4endlIcSt11char_traitsIcEERSt13basic_ostreamIT_T0_ES6_@GLIBCXX_3.4>
  4008dc:	91016021 	add	x1, x1, #0x58
  4008e0:	cb000021 	sub	x1, x1, x0
  4008e4:	d37ffc22 	lsr	x2, x1, #63
  4008e8:	8b810c41 	add	x1, x2, x1, asr #3
  4008ec:	9341fc21 	asr	x1, x1, #1
  4008f0:	b40000c1 	cbz	x1, 400908 <register_tm_clones+0x38>
  4008f4:	f00000e2 	adrp	x2, 41f000 <__FRAME_END__+0x1e380>
  4008f8:	f947f042 	ldr	x2, [x2, #4064]
  4008fc:	b4000062 	cbz	x2, 400908 <register_tm_clones+0x38>
  400900:	aa0203f0 	mov	x16, x2
  400904:	d61f0200 	br	x16
  400908:	d65f03c0 	ret
  40090c:	d503201f 	nop

0000000000400910 <__do_global_dtors_aux>:
  400910:	d503233f 	paciasp
  400914:	a9be7bfd 	stp	x29, x30, [sp, #-32]!
  400918:	910003fd 	mov	x29, sp
  40091c:	f9000bf3 	str	x19, [sp, #16]
  400920:	90000113 	adrp	x19, 420000 <_ZSt4endlIcSt11char_traitsIcEERSt13basic_ostreamIT_T0_ES6_@GLIBCXX_3.4>
  400924:	3945a260 	ldrb	w0, [x19, #360]
  400928:	35000080 	cbnz	w0, 400938 <__do_global_dtors_aux+0x28>
  40092c:	97ffffdd 	bl	4008a0 <deregister_tm_clones>
  400930:	52800020 	mov	w0, #0x1                   	// #1
  400934:	3905a260 	strb	w0, [x19, #360]
  400938:	f9400bf3 	ldr	x19, [sp, #16]
  40093c:	a8c27bfd 	ldp	x29, x30, [sp], #32
  400940:	d50323bf 	autiasp
  400944:	d65f03c0 	ret
  400948:	d503201f 	nop
  40094c:	d503201f 	nop

0000000000400950 <frame_dummy>:
  400950:	d503245f 	bti	c
  400954:	17ffffdf 	b	4008d0 <register_tm_clones>

0000000000400958 <_Z3foov>:
  400958:	a9bf7bfd 	stp	x29, x30, [sp, #-16]!
  40095c:	910003fd 	mov	x29, sp
  400960:	90000000 	adrp	x0, 400000 <__abi_tag-0x278>
  400964:	912b2001 	add	x1, x0, #0xac8
  400968:	90000100 	adrp	x0, 420000 <_ZSt4endlIcSt11char_traitsIcEERSt13basic_ostreamIT_T0_ES6_@GLIBCXX_3.4>
  40096c:	91016000 	add	x0, x0, #0x58
  400970:	97ffff94 	bl	4007c0 <_ZStlsISt11char_traitsIcEERSt13basic_ostreamIcT_ES5_PKc@plt>
  400974:	aa0003e2 	mov	x2, x0
  400978:	90000000 	adrp	x0, 400000 <__abi_tag-0x278>
  40097c:	911e8001 	add	x1, x0, #0x7a0
  400980:	aa0203e0 	mov	x0, x2
  400984:	97ffff93 	bl	4007d0 <_ZNSolsEPFRSoS_E@plt>
  400988:	d503201f 	nop
  40098c:	a8c17bfd 	ldp	x29, x30, [sp], #16
  400990:	d65f03c0 	ret

0000000000400994 <_Z3fooi>:
  400994:	a9be7bfd 	stp	x29, x30, [sp, #-32]!
  400998:	910003fd 	mov	x29, sp
  40099c:	b9001fe0 	str	w0, [sp, #28]
  4009a0:	90000000 	adrp	x0, 400000 <__abi_tag-0x278>
  4009a4:	912b2001 	add	x1, x0, #0xac8
  4009a8:	90000100 	adrp	x0, 420000 <_ZSt4endlIcSt11char_traitsIcEERSt13basic_ostreamIT_T0_ES6_@GLIBCXX_3.4>
  4009ac:	91016000 	add	x0, x0, #0x58
  4009b0:	97ffff84 	bl	4007c0 <_ZStlsISt11char_traitsIcEERSt13basic_ostreamIcT_ES5_PKc@plt>
  4009b4:	b9401fe1 	ldr	w1, [sp, #28]
  4009b8:	97ffff96 	bl	400810 <_ZNSolsEi@plt>
  4009bc:	aa0003e2 	mov	x2, x0
  4009c0:	90000000 	adrp	x0, 400000 <__abi_tag-0x278>
  4009c4:	911e8001 	add	x1, x0, #0x7a0
  4009c8:	aa0203e0 	mov	x0, x2
  4009cc:	97ffff81 	bl	4007d0 <_ZNSolsEPFRSoS_E@plt>
  4009d0:	d503201f 	nop
  4009d4:	a8c27bfd 	ldp	x29, x30, [sp], #32
  4009d8:	d65f03c0 	ret

00000000004009dc <main>:
  4009dc:	a9bf7bfd 	stp	x29, x30, [sp, #-16]!
  4009e0:	910003fd 	mov	x29, sp
  4009e4:	90000000 	adrp	x0, 400000 <__abi_tag-0x278>
  4009e8:	912b4001 	add	x1, x0, #0xad0
  4009ec:	90000100 	adrp	x0, 420000 <_ZSt4endlIcSt11char_traitsIcEERSt13basic_ostreamIT_T0_ES6_@GLIBCXX_3.4>
  4009f0:	91016000 	add	x0, x0, #0x58
  4009f4:	97ffff73 	bl	4007c0 <_ZStlsISt11char_traitsIcEERSt13basic_ostreamIcT_ES5_PKc@plt>
  4009f8:	aa0003e2 	mov	x2, x0
  4009fc:	90000000 	adrp	x0, 400000 <__abi_tag-0x278>
  400a00:	911e8001 	add	x1, x0, #0x7a0
  400a04:	aa0203e0 	mov	x0, x2
  400a08:	97ffff72 	bl	4007d0 <_ZNSolsEPFRSoS_E@plt>
  400a0c:	97ffffd3 	bl	400958 <_Z3foov>
  400a10:	52800040 	mov	w0, #0x2                   	// #2
  400a14:	97ffffe0 	bl	400994 <_Z3fooi>
  400a18:	52800000 	mov	w0, #0x0                   	// #0
  400a1c:	a8c17bfd 	ldp	x29, x30, [sp], #16
  400a20:	d65f03c0 	ret

0000000000400a24 <_Z41__static_initialization_and_destruction_0ii>:
  400a24:	a9be7bfd 	stp	x29, x30, [sp, #-32]!
  400a28:	910003fd 	mov	x29, sp
  400a2c:	b9001fe0 	str	w0, [sp, #28]
  400a30:	b9001be1 	str	w1, [sp, #24]
  400a34:	b9401fe0 	ldr	w0, [sp, #28]
  400a38:	7100041f 	cmp	w0, #0x1
  400a3c:	540001e1 	b.ne	400a78 <_Z41__static_initialization_and_destruction_0ii+0x54>  // b.any
  400a40:	b9401be1 	ldr	w1, [sp, #24]
  400a44:	529fffe0 	mov	w0, #0xffff                	// #65535
  400a48:	6b00003f 	cmp	w1, w0
  400a4c:	54000161 	b.ne	400a78 <_Z41__static_initialization_and_destruction_0ii+0x54>  // b.any
  400a50:	90000100 	adrp	x0, 420000 <_ZSt4endlIcSt11char_traitsIcEERSt13basic_ostreamIT_T0_ES6_@GLIBCXX_3.4>
  400a54:	9105c000 	add	x0, x0, #0x170
  400a58:	97ffff66 	bl	4007f0 <_ZNSt8ios_base4InitC1Ev@plt>
  400a5c:	90000000 	adrp	x0, 400000 <__abi_tag-0x278>
  400a60:	912b0002 	add	x2, x0, #0xac0
  400a64:	90000100 	adrp	x0, 420000 <_ZSt4endlIcSt11char_traitsIcEERSt13basic_ostreamIT_T0_ES6_@GLIBCXX_3.4>
  400a68:	9105c001 	add	x1, x0, #0x170
  400a6c:	90000000 	adrp	x0, 400000 <__abi_tag-0x278>
  400a70:	9120c000 	add	x0, x0, #0x830
  400a74:	97ffff5b 	bl	4007e0 <__cxa_atexit@plt>
  400a78:	d503201f 	nop
  400a7c:	a8c27bfd 	ldp	x29, x30, [sp], #32
  400a80:	d65f03c0 	ret

0000000000400a84 <_GLOBAL__sub_I__Z3foov>:
  400a84:	a9bf7bfd 	stp	x29, x30, [sp, #-16]!
  400a88:	910003fd 	mov	x29, sp
  400a8c:	529fffe1 	mov	w1, #0xffff                	// #65535
  400a90:	52800020 	mov	w0, #0x1                   	// #1
  400a94:	97ffffe4 	bl	400a24 <_Z41__static_initialization_and_destruction_0ii>
  400a98:	a8c17bfd 	ldp	x29, x30, [sp], #16
  400a9c:	d65f03c0 	ret

Disassembly of section .fini:

0000000000400aa0 <_fini>:
  400aa0:	d503233f 	paciasp
  400aa4:	a9bf7bfd 	stp	x29, x30, [sp, #-16]!
  400aa8:	910003fd 	mov	x29, sp
  400aac:	a8c17bfd 	ldp	x29, x30, [sp], #16
  400ab0:	d50323bf 	autiasp
  400ab4:	d65f03c0 	ret
